target datalayout = "e-m:e-p270:32:32-p271:32:32-p272:64:64-i64:64-i128:128-f80:128-n8:16:32:64-S128"
target triple = "x86_64-pc-linux-gnu"

%struct.png_struct_def = type { [1 x %struct.__jmp_buf_tag], ptr, ptr, i64, ptr, ptr, ptr, ptr, ptr, ptr, ptr, ptr, ptr, i8, i8, i32, i32, i32, i32, %struct.z_stream_s, ptr, i32, i32, i32, i32, i32, i32, i32, i32, i32, i32, i32, i32, i32, i32, i32, i32, i32, i32, i32, i32, i32, i64, i32, i32, i32, ptr, ptr, ptr, ptr, i64, i32, i32, ptr, i16, i32, i16, i8, i8, i8, i8, i8, i8, i8, i8, i8, i8, i8, i8, i8, i8, i8, i16, i8, i32, %struct.png_color_16_struct, %struct.png_color_16_struct, ptr, i32, i32, %struct.png_xy, i32, i32, i32, i32, i32, ptr, ptr, ptr, ptr, ptr, ptr, %struct.png_color_8_struct, %struct.png_color_8_struct, ptr, %struct.png_color_16_struct, ptr, ptr, ptr, ptr, ptr, ptr, ptr, ptr, ptr, i32, i32, i64, i64, i64, i64, i32, i32, ptr, ptr, i32, [29 x i8], i32, ptr, ptr, i32, i32, ptr, i8, i8, i16, i16, ptr, i32, i8, ptr, ptr, ptr, ptr, ptr, ptr, ptr, i8, i32, i32, i32, i64, %struct.png_unknown_chunk_t, i64, ptr, i64, i32, i32, ptr, [4 x ptr] }
%struct.__jmp_buf_tag = type { [8 x i64], i32, %struct.__sigset_t }
%struct.__sigset_t = type { [16 x i64] }
%struct.z_stream_s = type { ptr, i32, i64, ptr, i32, i64, ptr, ptr, ptr, ptr, ptr, i32, i64, i64 }
%struct.png_xy = type { i32, i32, i32, i32, i32, i32, i32, i32 }
%struct.png_color_8_struct = type { i8, i8, i8, i8, i8 }
%struct.png_color_16_struct = type { i8, i16, i16, i16, i16 }
%struct.png_unknown_chunk_t = type { [5 x i8], ptr, i64, i8 }

@.str.3 = private unnamed_addr constant [19 x i8] c"invalid alpha mode\00", align 1
@.str.4 = private unnamed_addr constant [51 x i8] c"conflicting calls to set alpha mode and background\00", align 1
@.str.18 = private unnamed_addr constant [59 x i8] c"invalid after png_start_read_image or png_read_update_info\00", align 1
@.str.19 = private unnamed_addr constant [44 x i8] c"invalid before the PNG header has been read\00", align 1
@.str.20 = private unnamed_addr constant [29 x i8] c"gamma out of supported range\00", align 1

; Function Attrs: nounwind uwtable
define internal i32 @unsupported_gamma(ptr noalias noundef %0, i32 noundef %1, i32 noundef %2) #0 {
  %4 = alloca i32, align 4
  %5 = alloca ptr, align 8
  %6 = alloca i32, align 4
  %7 = alloca i32, align 4
  store ptr %0, ptr %5, align 8, !tbaa !3
  store i32 %1, ptr %6, align 4, !tbaa !8
  store i32 %2, ptr %7, align 4, !tbaa !8
  %8 = load i32, ptr %6, align 4, !tbaa !8
  %9 = icmp slt i32 %8, 1000
  br i1 %9, label %13, label %10

10:                                               ; preds = %3
  %11 = load i32, ptr %6, align 4, !tbaa !8
  %12 = icmp sgt i32 %11, 10000000
  br i1 %12, label %13, label %21

13:                                               ; preds = %10, %3
  %14 = load i32, ptr %7, align 4, !tbaa !8
  %15 = icmp ne i32 %14, 0
  br i1 %15, label %16, label %18

16:                                               ; preds = %13
  %17 = load ptr, ptr %5, align 8, !tbaa !3
  call void @png_app_warning(ptr noundef %17, ptr noundef @.str.20)
  br label %20

18:                                               ; preds = %13
  %19 = load ptr, ptr %5, align 8, !tbaa !3
  call void @png_app_error(ptr noundef %19, ptr noundef @.str.20)
  br label %20

20:                                               ; preds = %18, %16
  store i32 1, ptr %4, align 4
  br label %22

21:                                               ; preds = %10
  store i32 0, ptr %4, align 4
  br label %22

22:                                               ; preds = %21, %20
  %23 = load i32, ptr %4, align 4
  ret i32 %23
}

; Function Attrs: nounwind uwtable
define internal i32 @translate_gamma_flags(i32 noundef %0, i32 noundef %1) #0 {
  %3 = alloca i32, align 4
  %4 = alloca i32, align 4
  store i32 %0, ptr %3, align 4, !tbaa !8
  store i32 %1, ptr %4, align 4, !tbaa !8
  %5 = load i32, ptr %3, align 4, !tbaa !8
  %6 = icmp eq i32 %5, -1
  br i1 %6, label %10, label %7

7:                                                ; preds = %2
  %8 = load i32, ptr %3, align 4, !tbaa !8
  %9 = icmp eq i32 %8, -100000
  br i1 %9, label %10, label %16

10:                                               ; preds = %7, %2
  %11 = load i32, ptr %4, align 4, !tbaa !8
  %12 = icmp ne i32 %11, 0
  br i1 %12, label %13, label %14

13:                                               ; preds = %10
  store i32 220000, ptr %3, align 4, !tbaa !8
  br label %15

14:                                               ; preds = %10
  store i32 45455, ptr %3, align 4, !tbaa !8
  br label %15

15:                                               ; preds = %14, %13
  br label %29

16:                                               ; preds = %7
  %17 = load i32, ptr %3, align 4, !tbaa !8
  %18 = icmp eq i32 %17, -2
  br i1 %18, label %22, label %19

19:                                               ; preds = %16
  %20 = load i32, ptr %3, align 4, !tbaa !8
  %21 = icmp eq i32 %20, -50000
  br i1 %21, label %22, label %28

22:                                               ; preds = %19, %16
  %23 = load i32, ptr %4, align 4, !tbaa !8
  %24 = icmp ne i32 %23, 0
  br i1 %24, label %25, label %26

25:                                               ; preds = %22
  store i32 151724, ptr %3, align 4, !tbaa !8
  br label %27

26:                                               ; preds = %22
  store i32 65909, ptr %3, align 4, !tbaa !8
  br label %27

27:                                               ; preds = %26, %25
  br label %28

28:                                               ; preds = %27, %19
  br label %29

29:                                               ; preds = %28, %15
  %30 = load i32, ptr %3, align 4, !tbaa !8
  ret i32 %30
}

; Function Attrs: nounwind uwtable
define internal i32 @png_rtran_ok(ptr noalias noundef %0, i32 noundef %1) #0 {
  %3 = alloca i32, align 4
  %4 = alloca ptr, align 8
  %5 = alloca i32, align 4
  store ptr %0, ptr %4, align 8, !tbaa !3
  store i32 %1, ptr %5, align 4, !tbaa !8
  %6 = load ptr, ptr %4, align 8, !tbaa !3
  %7 = icmp ne ptr %6, null
  br i1 %7, label %8, label %34

8:                                                ; preds = %2
  %9 = load ptr, ptr %4, align 8, !tbaa !3
  %10 = getelementptr inbounds nuw %struct.png_struct_def, ptr %9, i32 0, i32 16
  %11 = load i32, ptr %10, align 8, !tbaa !10
  %12 = and i32 %11, 64
  %13 = icmp ne i32 %12, 0
  br i1 %13, label %14, label %16

14:                                               ; preds = %8
  %15 = load ptr, ptr %4, align 8, !tbaa !3
  call void @png_app_error(ptr noundef %15, ptr noundef @.str.18)
  br label %33

16:                                               ; preds = %8
  %17 = load i32, ptr %5, align 4, !tbaa !8
  %18 = icmp ne i32 %17, 0
  br i1 %18, label %19, label %27

19:                                               ; preds = %16
  %20 = load ptr, ptr %4, align 8, !tbaa !3
  %21 = getelementptr inbounds nuw %struct.png_struct_def, ptr %20, i32 0, i32 15
  %22 = load i32, ptr %21, align 4, !tbaa !33
  %23 = and i32 %22, 1
  %24 = icmp eq i32 %23, 0
  br i1 %24, label %25, label %27

25:                                               ; preds = %19
  %26 = load ptr, ptr %4, align 8, !tbaa !3
  call void @png_app_error(ptr noundef %26, ptr noundef @.str.19)
  br label %32

27:                                               ; preds = %19, %16
  %28 = load ptr, ptr %4, align 8, !tbaa !3
  %29 = getelementptr inbounds nuw %struct.png_struct_def, ptr %28, i32 0, i32 16
  %30 = load i32, ptr %29, align 8, !tbaa !10
  %31 = or i32 %30, 16384
  store i32 %31, ptr %29, align 8, !tbaa !10
  store i32 1, ptr %3, align 4
  br label %35

32:                                               ; preds = %25
  br label %33

33:                                               ; preds = %32, %14
  br label %34

34:                                               ; preds = %33, %2
  store i32 0, ptr %3, align 4
  br label %35

35:                                               ; preds = %34, %27
  %36 = load i32, ptr %3, align 4
  ret i32 %36
}

; Function Attrs: nounwind uwtable
define void @png_set_alpha_mode_fixed(ptr noalias noundef %0, i32 noundef %1, i32 noundef %2) #0 {
  %4 = alloca ptr, align 8
  %5 = alloca i32, align 4
  %6 = alloca i32, align 4
  %7 = alloca i32, align 4
  %8 = alloca i32, align 4
  %9 = alloca i32, align 4
  store ptr %0, ptr %4, align 8, !tbaa !3
  store i32 %1, ptr %5, align 4, !tbaa !8
  store i32 %2, ptr %6, align 4, !tbaa !8
  call void @llvm.lifetime.start.p0(i64 4, ptr %7) #7
  call void @llvm.lifetime.start.p0(i64 4, ptr %8) #7
  store i32 0, ptr %8, align 4, !tbaa !8
  %10 = load ptr, ptr %4, align 8, !tbaa !3
  %11 = call i32 @png_rtran_ok(ptr noundef %10, i32 noundef 0)
  %12 = icmp eq i32 %11, 0
  br i1 %12, label %13, label %14

13:                                               ; preds = %3
  store i32 1, ptr %9, align 4
  br label %105

14:                                               ; preds = %3
  %15 = load i32, ptr %6, align 4, !tbaa !8
  %16 = call i32 @translate_gamma_flags(i32 noundef %15, i32 noundef 1)
  store i32 %16, ptr %6, align 4, !tbaa !8
  %17 = load ptr, ptr %4, align 8, !tbaa !3
  %18 = load i32, ptr %6, align 4, !tbaa !8
  %19 = call i32 @unsupported_gamma(ptr noundef %17, i32 noundef %18, i32 noundef 0)
  %20 = icmp ne i32 %19, 0
  br i1 %20, label %21, label %22

21:                                               ; preds = %14
  store i32 1, ptr %9, align 4
  br label %105

22:                                               ; preds = %14
  %23 = load ptr, ptr %4, align 8, !tbaa !3
  %24 = getelementptr inbounds nuw %struct.png_struct_def, ptr %23, i32 0, i32 85
  %25 = load i32, ptr %24, align 8, !tbaa !36
  store i32 %25, ptr %7, align 4, !tbaa !8
  %26 = load i32, ptr %7, align 4, !tbaa !8
  %27 = icmp eq i32 %26, 0
  br i1 %27, label %28, label %34

28:                                               ; preds = %22
  %29 = load i32, ptr %6, align 4, !tbaa !8
  %30 = call i32 @png_reciprocal(i32 noundef %29)
  store i32 %30, ptr %7, align 4, !tbaa !8
  %31 = load i32, ptr %7, align 4, !tbaa !8
  %32 = load ptr, ptr %4, align 8, !tbaa !3
  %33 = getelementptr inbounds nuw %struct.png_struct_def, ptr %32, i32 0, i32 85
  store i32 %31, ptr %33, align 8, !tbaa !36
  br label %34

34:                                               ; preds = %28, %22
  %35 = load i32, ptr %5, align 4, !tbaa !8
  switch i32 %35, label %72 [
    i32 0, label %36
    i32 1, label %45
    i32 2, label %54
    i32 3, label %63
  ]

36:                                               ; preds = %34
  %37 = load ptr, ptr %4, align 8, !tbaa !3
  %38 = getelementptr inbounds nuw %struct.png_struct_def, ptr %37, i32 0, i32 17
  %39 = load i32, ptr %38, align 4, !tbaa !27
  %40 = and i32 %39, -8388609
  store i32 %40, ptr %38, align 4, !tbaa !27
  %41 = load ptr, ptr %4, align 8, !tbaa !3
  %42 = getelementptr inbounds nuw %struct.png_struct_def, ptr %41, i32 0, i32 16
  %43 = load i32, ptr %42, align 8, !tbaa !10
  %44 = and i32 %43, -8193
  store i32 %44, ptr %42, align 8, !tbaa !10
  br label %74

45:                                               ; preds = %34
  store i32 1, ptr %8, align 4, !tbaa !8
  %46 = load ptr, ptr %4, align 8, !tbaa !3
  %47 = getelementptr inbounds nuw %struct.png_struct_def, ptr %46, i32 0, i32 17
  %48 = load i32, ptr %47, align 4, !tbaa !27
  %49 = and i32 %48, -8388609
  store i32 %49, ptr %47, align 4, !tbaa !27
  %50 = load ptr, ptr %4, align 8, !tbaa !3
  %51 = getelementptr inbounds nuw %struct.png_struct_def, ptr %50, i32 0, i32 16
  %52 = load i32, ptr %51, align 8, !tbaa !10
  %53 = and i32 %52, -8193
  store i32 %53, ptr %51, align 8, !tbaa !10
  store i32 100000, ptr %6, align 4, !tbaa !8
  br label %74

54:                                               ; preds = %34
  store i32 1, ptr %8, align 4, !tbaa !8
  %55 = load ptr, ptr %4, align 8, !tbaa !3
  %56 = getelementptr inbounds nuw %struct.png_struct_def, ptr %55, i32 0, i32 17
  %57 = load i32, ptr %56, align 4, !tbaa !27
  %58 = and i32 %57, -8388609
  store i32 %58, ptr %56, align 4, !tbaa !27
  %59 = load ptr, ptr %4, align 8, !tbaa !3
  %60 = getelementptr inbounds nuw %struct.png_struct_def, ptr %59, i32 0, i32 16
  %61 = load i32, ptr %60, align 8, !tbaa !10
  %62 = or i32 %61, 8192
  store i32 %62, ptr %60, align 8, !tbaa !10
  br label %74

63:                                               ; preds = %34
  store i32 1, ptr %8, align 4, !tbaa !8
  %64 = load ptr, ptr %4, align 8, !tbaa !3
  %65 = getelementptr inbounds nuw %struct.png_struct_def, ptr %64, i32 0, i32 17
  %66 = load i32, ptr %65, align 4, !tbaa !27
  %67 = or i32 %66, 8388608
  store i32 %67, ptr %65, align 4, !tbaa !27
  %68 = load ptr, ptr %4, align 8, !tbaa !3
  %69 = getelementptr inbounds nuw %struct.png_struct_def, ptr %68, i32 0, i32 16
  %70 = load i32, ptr %69, align 8, !tbaa !10
  %71 = and i32 %70, -8193
  store i32 %71, ptr %69, align 8, !tbaa !10
  br label %74

72:                                               ; preds = %34
  %73 = load ptr, ptr %4, align 8, !tbaa !3
  call void @png_error(ptr noundef %73, ptr noundef @.str.3) #8
  unreachable

74:                                               ; preds = %63, %54, %45, %36
  %75 = load i32, ptr %6, align 4, !tbaa !8
  %76 = load ptr, ptr %4, align 8, !tbaa !3
  %77 = getelementptr inbounds nuw %struct.png_struct_def, ptr %76, i32 0, i32 82
  store i32 %75, ptr %77, align 4, !tbaa !37
  %78 = load i32, ptr %8, align 4, !tbaa !8
  %79 = icmp ne i32 %78, 0
  br i1 %79, label %80, label %104

80:                                               ; preds = %74
  %81 = load ptr, ptr %4, align 8, !tbaa !3
  %82 = getelementptr inbounds nuw %struct.png_struct_def, ptr %81, i32 0, i32 75
  call void @llvm.memset.p0.i64(ptr align 4 %82, i8 0, i64 10, i1 false)
  %83 = load i32, ptr %7, align 4, !tbaa !8
  %84 = load ptr, ptr %4, align 8, !tbaa !3
  %85 = getelementptr inbounds nuw %struct.png_struct_def, ptr %84, i32 0, i32 74
  store i32 %83, ptr %85, align 8, !tbaa !31
  %86 = load ptr, ptr %4, align 8, !tbaa !3
  %87 = getelementptr inbounds nuw %struct.png_struct_def, ptr %86, i32 0, i32 73
  store i8 2, ptr %87, align 4, !tbaa !32
  %88 = load ptr, ptr %4, align 8, !tbaa !3
  %89 = getelementptr inbounds nuw %struct.png_struct_def, ptr %88, i32 0, i32 17
  %90 = load i32, ptr %89, align 4, !tbaa !27
  %91 = and i32 %90, -257
  store i32 %91, ptr %89, align 4, !tbaa !27
  %92 = load ptr, ptr %4, align 8, !tbaa !3
  %93 = getelementptr inbounds nuw %struct.png_struct_def, ptr %92, i32 0, i32 17
  %94 = load i32, ptr %93, align 4, !tbaa !27
  %95 = and i32 %94, 128
  %96 = icmp ne i32 %95, 0
  br i1 %96, label %97, label %99

97:                                               ; preds = %80
  %98 = load ptr, ptr %4, align 8, !tbaa !3
  call void @png_error(ptr noundef %98, ptr noundef @.str.4) #8
  unreachable

99:                                               ; preds = %80
  %100 = load ptr, ptr %4, align 8, !tbaa !3
  %101 = getelementptr inbounds nuw %struct.png_struct_def, ptr %100, i32 0, i32 17
  %102 = load i32, ptr %101, align 4, !tbaa !27
  %103 = or i32 %102, 128
  store i32 %103, ptr %101, align 4, !tbaa !27
  br label %104

104:                                              ; preds = %99, %74
  store i32 0, ptr %9, align 4
  br label %105

105:                                              ; preds = %104, %21, %13
  call void @llvm.lifetime.end.p0(i64 4, ptr %8) #7
  call void @llvm.lifetime.end.p0(i64 4, ptr %7) #7
  %106 = load i32, ptr %9, align 4
  switch i32 %106, label %108 [
    i32 0, label %107
    i32 1, label %107
  ]

107:                                              ; preds = %105, %105
  ret void

108:                                              ; preds = %105
  unreachable
}