; Function Attrs: nounwind uwtable
define void @png_set_alpha_mode_fixed(ptr noalias noundef %0, i32 noundef %1, i32 noundef %2) local_unnamed_addr #0 {
  %.not.i = icmp eq ptr %0, null
  br i1 %.not.i, label %png_rtran_ok.exit.thread, label %4

4:                                                ; preds = %3
  %5 = getelementptr inbounds nuw i8, ptr %0, i64 304
  %6 = load i32, ptr %5, align 8, !tbaa !3, !alias.scope !46
  %7 = and i32 %6, 64
  %.not8.i = icmp eq i32 %7, 0
  br i1 %.not8.i, label %9, label %8

8:                                                ; preds = %4
  tail call void @png_app_error(ptr noundef nonnull %0, ptr noundef nonnull @.str.18) #11
  br label %png_rtran_ok.exit.thread

9:                                                ; preds = %4
  %10 = or i32 %6, 16384
  store i32 %10, ptr %5, align 8, !tbaa !3, !alias.scope !46
  switch i32 %2, label %translate_gamma_flags.exit [
    i32 -1, label %translate_gamma_flags.exit.thread
    i32 -100000, label %translate_gamma_flags.exit.thread
    i32 -2, label %11
    i32 -50000, label %11
  ]

11:                                               ; preds = %9, %9
  br label %translate_gamma_flags.exit.thread

translate_gamma_flags.exit:                       ; preds = %9
  %12 = add i32 %2, -10000001
  %or.cond.i = icmp ult i32 %12, -9999001
  br i1 %or.cond.i, label %unsupported_gamma.exit, label %translate_gamma_flags.exit.thread

unsupported_gamma.exit:                           ; preds = %translate_gamma_flags.exit
  tail call void @png_app_error(ptr noundef nonnull %0, ptr noundef nonnull @.str.20) #11
  br label %png_rtran_ok.exit.thread

translate_gamma_flags.exit.thread:                ; preds = %9, %9, %11, %translate_gamma_flags.exit
  %.0.i3439.ph = phi i32 [ %2, %translate_gamma_flags.exit ], [ 151724, %11 ], [ 220000, %9 ], [ 220000, %9 ]
  %13 = getelementptr inbounds nuw i8, ptr %0, i64 728
  %14 = load i32, ptr %13, align 8, !tbaa !49
  %15 = icmp eq i32 %14, 0
  br i1 %15, label %16, label %18

16:                                               ; preds = %translate_gamma_flags.exit.thread
  %17 = tail call i32 @png_reciprocal(i32 noundef %.0.i3439.ph) #11
  store i32 %17, ptr %13, align 8, !tbaa !49
  br label %18

18:                                               ; preds = %16, %translate_gamma_flags.exit.thread
  %.029 = phi i32 [ %17, %16 ], [ %14, %translate_gamma_flags.exit.thread ]
  switch i32 %1, label %44 [
    i32 0, label %19
    i32 1, label %26
    i32 2, label %32
    i32 3, label %38
  ]

19:                                               ; preds = %18
  %20 = getelementptr inbounds nuw i8, ptr %0, i64 308
  %21 = load i32, ptr %20, align 4, !tbaa !25
  %22 = and i32 %21, -8388609
  store i32 %22, ptr %20, align 4, !tbaa !25
  %23 = load i32, ptr %5, align 8, !tbaa !3
  %24 = and i32 %23, -8193
  store i32 %24, ptr %5, align 8, !tbaa !3
  %25 = getelementptr inbounds nuw i8, ptr %0, i64 716
  store i32 %.0.i3439.ph, ptr %25, align 4, !tbaa !50
  br label %png_rtran_ok.exit.thread

26:                                               ; preds = %18
  %27 = getelementptr inbounds nuw i8, ptr %0, i64 308
  %28 = load i32, ptr %27, align 4, !tbaa !25
  %29 = and i32 %28, -8388609
  %30 = load i32, ptr %5, align 8, !tbaa !3
  %31 = and i32 %30, -8193
  br label %.critedge

32:                                               ; preds = %18
  %33 = getelementptr inbounds nuw i8, ptr %0, i64 308
  %34 = load i32, ptr %33, align 4, !tbaa !25
  %35 = and i32 %34, -8388609
  %36 = load i32, ptr %5, align 8, !tbaa !3
  %37 = or i32 %36, 8192
  br label %.critedge

38:                                               ; preds = %18
  %39 = getelementptr inbounds nuw i8, ptr %0, i64 308
  %40 = load i32, ptr %39, align 4, !tbaa !25
  %41 = or i32 %40, 8388608
  %42 = load i32, ptr %5, align 8, !tbaa !3
  %43 = and i32 %42, -8193
  br label %.critedge

44:                                               ; preds = %18
  tail call void @png_error(ptr noundef nonnull %0, ptr noundef nonnull @.str.3) #12
  unreachable

.critedge:                                        ; preds = %26, %32, %38
  %.sink = phi i32 [ %31, %26 ], [ %37, %32 ], [ %43, %38 ]
  %45 = phi i32 [ %29, %26 ], [ %35, %32 ], [ %41, %38 ]
  %.030.ph = phi i32 [ 100000, %26 ], [ %.0.i3439.ph, %32 ], [ %.0.i3439.ph, %38 ]
  store i32 %.sink, ptr %5, align 8, !tbaa !3
  %46 = getelementptr inbounds nuw i8, ptr %0, i64 716
  store i32 %.030.ph, ptr %46, align 4, !tbaa !50
  %47 = getelementptr inbounds nuw i8, ptr %0, i64 644
  tail call void @llvm.memset.p0.i64(ptr noundef nonnull align 4 dereferenceable(10) %47, i8 0, i64 10, i1 false)
  %48 = getelementptr inbounds nuw i8, ptr %0, i64 640
  store i32 %.029, ptr %48, align 8, !tbaa !29
  %49 = getelementptr inbounds nuw i8, ptr %0, i64 636
  store i8 2, ptr %49, align 4, !tbaa !30
  %50 = getelementptr inbounds nuw i8, ptr %0, i64 308
  %51 = and i32 %45, -257
  store i32 %51, ptr %50, align 4, !tbaa !25
  %52 = and i32 %45, 128
  %.not33 = icmp eq i32 %52, 0
  br i1 %.not33, label %54, label %53

53:                                               ; preds = %.critedge
  tail call void @png_error(ptr noundef nonnull %0, ptr noundef nonnull @.str.4) #12
  unreachable

54:                                               ; preds = %.critedge
  %55 = or disjoint i32 %51, 128
  store i32 %55, ptr %50, align 4, !tbaa !25
  br label %png_rtran_ok.exit.thread

png_rtran_ok.exit.thread:                         ; preds = %3, %8, %unsupported_gamma.exit, %54, %19
  ret void
}